; Function Attrs: nounwind uwtable
define dso_local range(i64 0, 2) i64 @has_function_privilege_name(ptr noundef readonly captures(none) %0) local_unnamed_addr #0 {
  %2 = getelementptr inbounds nuw i8, ptr %0, i64 32
  %3 = load i64, ptr %2, align 8
  %4 = inttoptr i64 %3 to ptr
  %5 = tail call ptr @pg_detoast_datum_packed(ptr noundef %4) #14
  %6 = getelementptr inbounds nuw i8, ptr %0, i64 48
  %7 = load i64, ptr %6, align 8
  %8 = inttoptr i64 %7 to ptr
  %9 = tail call ptr @pg_detoast_datum_packed(ptr noundef %8) #14
  %10 = tail call i32 @GetUserId() #14
  %11 = tail call ptr @text_to_cstring(ptr noundef %5) #14
  %12 = ptrtoint ptr %11 to i64
  %13 = tail call i64 @DirectFunctionCall1Coll(ptr noundef nonnull @regprocedurein, i32 noundef 0, i64 noundef %12) #14
  %14 = trunc i64 %13 to i32
  %.not.i = icmp eq i32 %14, 0
  br i1 %.not.i, label %15, label %convert_function_name.exit

15:                                               ; preds = %1
  %16 = tail call zeroext i1 @errstart_cold(i32 noundef 21, ptr noundef null) #15
  tail call void @llvm.assume(i1 %16)
  %17 = tail call i32 @errcode(i32 noundef 52461700) #14
  %18 = tail call i32 (ptr, ...) @errmsg(ptr noundef nonnull @.str.72, ptr noundef %11) #14
  tail call void @errfinish(ptr noundef nonnull @.str.1, i32 noundef 3548, ptr noundef nonnull @__func__.convert_function_name) #14
  unreachable

convert_function_name.exit:                       ; preds = %1
  %19 = tail call fastcc i64 @convert_any_priv_string(ptr noundef %9, ptr noundef nonnull @convert_function_priv_string.function_priv_map)
  %20 = tail call i32 @object_aclcheck(i32 noundef 1255, i32 noundef %14, i32 noundef %10, i64 noundef %19) #14
  %21 = icmp eq i32 %20, 0
  %22 = zext i1 %21 to i64
  ret i64 %22
}